target datalayout = "e-m:e-p270:32:32-p271:32:32-p272:64:64-i64:64-i128:128-f80:128-n8:16:32:64-S128"
target triple = "x86_64-pc-linux-gnu"

%struct.epan_column_info = type { ptr, i32, ptr, ptr, ptr, %struct.col_expr_t, i8, ptr }
%struct.col_expr_t = type { ptr, ptr }
%struct.col_item_t = type { i32, ptr, ptr, ptr, i32, ptr, ptr, ptr, ptr, i32, i8, i32 }

@.str.28 = private unnamed_addr constant [2 x i8] c"\0A\00", align 1

; Function Attrs: null_pointer_is_valid sspstrong uwtable
define void @write_csv_column_titles(ptr noundef %0, ptr noundef %1) #0 {
  %3 = alloca ptr, align 8
  %4 = alloca ptr, align 8
  %5 = alloca i32, align 4
  %6 = alloca i8, align 1
  store ptr %0, ptr %3, align 8
  store ptr %1, ptr %4, align 8
  call void @llvm.lifetime.start.p0(i64 4, ptr %5) #15
  call void @llvm.lifetime.start.p0(i64 1, ptr %6) #15
  store i8 0, ptr %6, align 1
  store i32 0, ptr %5, align 4
  br label %7

7:                                                ; preds = %29, %2
  %8 = load i32, ptr %5, align 4
  %9 = load ptr, ptr %3, align 8
  %10 = getelementptr inbounds nuw %struct.epan_column_info, ptr %9, i32 0, i32 1
  %11 = load i32, ptr %10, align 8
  %12 = icmp slt i32 %8, %11
  br i1 %12, label %13, label %32

13:                                               ; preds = %7
  %14 = load i32, ptr %5, align 4
  %15 = call zeroext i1 @get_column_visible(i32 noundef %14)
  br i1 %15, label %17, label %16

16:                                               ; preds = %13
  br label %29

17:                                               ; preds = %13
  %18 = load ptr, ptr %3, align 8
  %19 = getelementptr inbounds nuw %struct.epan_column_info, ptr %18, i32 0, i32 2
  %20 = load ptr, ptr %19, align 8
  %21 = load i32, ptr %5, align 4
  %22 = sext i32 %21 to i64
  %23 = getelementptr %struct.col_item_t, ptr %20, i64 %22
  %24 = getelementptr inbounds nuw %struct.col_item_t, ptr %23, i32 0, i32 2
  %25 = load ptr, ptr %24, align 8
  %26 = load ptr, ptr %4, align 8
  %27 = load i8, ptr %6, align 1, !range !6, !noundef !7
  %28 = trunc i8 %27 to i1
  call void @csv_write_str(ptr noundef %25, i8 noundef signext 44, ptr noundef %26, i1 noundef zeroext %28)
  store i8 1, ptr %6, align 1
  br label %29

29:                                               ; preds = %17, %16
  %30 = load i32, ptr %5, align 4
  %31 = add i32 %30, 1
  store i32 %31, ptr %5, align 4
  br label %7, !llvm.loop !27

32:                                               ; preds = %7
  %33 = load i8, ptr %6, align 1, !range !6, !noundef !7
  %34 = trunc i8 %33 to i1
  br i1 %34, label %35, label %38

35:                                               ; preds = %32
  %36 = load ptr, ptr %4, align 8
  %37 = call i32 (ptr, i32, ptr, ...) @__fprintf_chk(ptr noundef %36, i32 noundef 2, ptr noundef @.str.28)
  br label %38

38:                                               ; preds = %35, %32
  call void @llvm.lifetime.end.p0(i64 1, ptr %6) #15
  call void @llvm.lifetime.end.p0(i64 4, ptr %5) #15
  ret void
}