; Function Attrs: null_pointer_is_valid sspstrong uwtable
define void @write_csv_column_titles(ptr noundef readonly captures(none) %0, ptr noundef %1) local_unnamed_addr #0 {
  %3 = getelementptr inbounds nuw i8, ptr %0, i64 8
  %4 = load i32, ptr %3, align 8
  %5 = icmp sgt i32 %4, 0
  br i1 %5, label %.lr.ph, label %._crit_edge.thread

.lr.ph:                                           ; preds = %2
  %6 = getelementptr inbounds nuw i8, ptr %0, i64 16
  br label %7

7:                                                ; preds = %.lr.ph, %15
  %indvars.iv = phi i64 [ 0, %.lr.ph ], [ %indvars.iv.next, %15 ]
  %.011 = phi i8 [ 0, %.lr.ph ], [ %.1, %15 ]
  %8 = trunc nuw nsw i64 %indvars.iv to i32
  %9 = tail call zeroext i1 @get_column_visible(i32 noundef %8)
  br i1 %9, label %10, label %15

10:                                               ; preds = %7
  %11 = load ptr, ptr %6, align 8
  %12 = getelementptr %struct.col_item_t, ptr %11, i64 %indvars.iv, i32 2
  %13 = load ptr, ptr %12, align 8
  %14 = trunc nuw i8 %.011 to i1
  tail call fastcc void @csv_write_str(ptr noundef %13, ptr noundef %1, i1 noundef zeroext %14)
  br label %15

15:                                               ; preds = %7, %10
  %.1 = phi i8 [ 1, %10 ], [ %.011, %7 ]
  %indvars.iv.next = add nuw nsw i64 %indvars.iv, 1
  %16 = load i32, ptr %3, align 8
  %17 = sext i32 %16 to i64
  %18 = icmp slt i64 %indvars.iv.next, %17
  br i1 %18, label %7, label %._crit_edge, !llvm.loop !30

._crit_edge:                                      ; preds = %15
  %19 = trunc nuw i8 %.1 to i1
  br i1 %19, label %20, label %._crit_edge.thread

20:                                               ; preds = %._crit_edge
  %21 = tail call i32 (ptr, i32, ptr, ...) @__fprintf_chk(ptr noundef %1, i32 noundef 2, ptr noundef nonnull @.str.28)
  br label %._crit_edge.thread

._crit_edge.thread:                               ; preds = %2, %20, %._crit_edge
  ret void
}